; Function Attrs: nofree norecurse nosync nounwind memory(argmem: read) uwtable
define dso_local i32 @data_get_type(ptr noundef readonly captures(address_is_null) %0) local_unnamed_addr #3 {
  %.not = icmp eq ptr %0, null
  br i1 %.not, label %.loopexit, label %.preheader

.preheader:                                       ; preds = %1
  %2 = getelementptr inbounds nuw i8, ptr %0, i64 4
  %3 = load i32, ptr %2, align 4
  br label %5

4:                                                ; preds = %5
  %indvars.iv.next = add nuw nsw i64 %indvars.iv, 1
  %exitcond = icmp eq i64 %indvars.iv.next, 8
  br i1 %exitcond, label %.loopexit, label %5, !llvm.loop !11

5:                                                ; preds = %.preheader, %4
  %indvars.iv = phi i64 [ 0, %.preheader ], [ %indvars.iv.next, %4 ]
  %6 = getelementptr inbounds nuw [8 x %struct.anon], ptr @type_map, i64 0, i64 %indvars.iv
  %7 = getelementptr inbounds nuw i8, ptr %6, i64 4
  %8 = load i32, ptr %7, align 4
  %9 = icmp eq i32 %8, %3
  br i1 %9, label %10, label %4

10:                                               ; preds = %5
  %11 = load i32, ptr %6, align 8
  br label %.loopexit

.loopexit:                                        ; preds = %4, %10, %1
  %.09 = phi i32 [ 0, %1 ], [ %11, %10 ], [ 0, %4 ]
  ret i32 %.09
}